; Function Attrs: mustprogress uwtable
define dso_local noundef ptr @_ZN5cmsys31SystemInformationImplementation11GetHostnameEv(ptr noundef nonnull align 8 dereferenceable(457) %0) local_unnamed_addr #3 align 2 personality ptr @__gxx_personality_v0 {
  %2 = alloca %struct.utsname, align 1
  %3 = getelementptr inbounds nuw i8, ptr %0, i64 328
  %4 = getelementptr inbounds nuw i8, ptr %0, i64 336
  %5 = load i64, ptr %4, align 8, !tbaa !15
  %6 = icmp eq i64 %5, 0
  br i1 %6, label %7, label %17

7:                                                ; preds = %1
  %8 = tail call noundef nonnull align 8 dereferenceable(32) ptr @_ZNSt7__cxx1112basic_stringIcSt11char_traitsIcESaIcEE10_M_replaceEmmPKcm(ptr noundef nonnull align 8 dereferenceable(32) %3, i64 noundef 0, i64 noundef 0, ptr noundef nonnull @.str.9, i64 noundef 9)
  call void @llvm.lifetime.start.p0(i64 390, ptr nonnull %2) #34
  %9 = call i32 @uname(ptr noundef nonnull %2) #34
  %10 = icmp eq i32 %9, 0
  br i1 %10, label %11, label %16

11:                                               ; preds = %7
  %12 = getelementptr inbounds nuw i8, ptr %2, i64 65
  %13 = load i64, ptr %4, align 8, !tbaa !15
  %14 = call noundef i64 @strlen(ptr noundef nonnull dereferenceable(1) %12) #34
  %15 = call noundef nonnull align 8 dereferenceable(32) ptr @_ZNSt7__cxx1112basic_stringIcSt11char_traitsIcESaIcEE10_M_replaceEmmPKcm(ptr noundef nonnull align 8 dereferenceable(32) %3, i64 noundef 0, i64 noundef %13, ptr noundef nonnull %12, i64 noundef %14)
  br label %16

16:                                               ; preds = %11, %7
  call void @llvm.lifetime.end.p0(i64 390, ptr nonnull %2) #34
  br label %17

17:                                               ; preds = %16, %1
  %18 = load ptr, ptr %3, align 8, !tbaa !10
  ret ptr %18
}